; Function Attrs: mustprogress uwtable
define dso_local void @_ZN11btUnionFind4FreeEv(ptr noundef nonnull align 8 captures(none) dereferenceable(32) initializes((4, 12)) %0) local_unnamed_addr #1 align 2 {
  %2 = getelementptr inbounds nuw i8, ptr %0, i64 16
  %3 = load ptr, ptr %2, align 8, !tbaa !4
  %.not.i.i = icmp eq ptr %3, null
  br i1 %.not.i.i, label %_ZN20btAlignedObjectArrayI9btElementE5clearEv.exit, label %4

4:                                                ; preds = %1
  %5 = getelementptr inbounds nuw i8, ptr %0, i64 24
  %6 = load i8, ptr %5, align 8, !tbaa !13, !range !14, !noundef !15
  %7 = trunc nuw i8 %6 to i1
  br i1 %7, label %8, label %_ZN20btAlignedObjectArrayI9btElementE5clearEv.exit

8:                                                ; preds = %4
  tail call void @_Z21btAlignedFreeInternalPv(ptr noundef nonnull %3)
  br label %_ZN20btAlignedObjectArrayI9btElementE5clearEv.exit

_ZN20btAlignedObjectArrayI9btElementE5clearEv.exit: ; preds = %1, %4, %8
  %9 = getelementptr inbounds nuw i8, ptr %0, i64 4
  %10 = getelementptr inbounds nuw i8, ptr %0, i64 24
  store i8 1, ptr %10, align 8, !tbaa !13
  store ptr null, ptr %2, align 8, !tbaa !4
  store i32 0, ptr %9, align 4, !tbaa !16
  %11 = getelementptr inbounds nuw i8, ptr %0, i64 8
  store i32 0, ptr %11, align 8, !tbaa !17
  ret void
}